target datalayout = "e-m:e-p270:32:32-p271:32:32-p272:64:64-i64:64-i128:128-f80:128-n8:16:32:64-S128"
target triple = "x86_64-pc-linux-gnu"

%struct.pmix_hash_type_methods_t = type { ptr, ptr }
%struct.pmix_hash_table_t = type { %struct.pmix_object_t, ptr, ptr, i64, i64, i64, i32, i32, i32, i32, ptr }
%struct.pmix_object_t = type { %union.pthread_mutex_t, ptr, i32, %struct.pmix_tma }
%union.pthread_mutex_t = type { %struct.__pthread_mutex_s }
%struct.__pthread_mutex_s = type { i32, i32, i32, i32, i32, i16, i16, %struct.__pthread_internal_list }
%struct.__pthread_internal_list = type { ptr, ptr }
%struct.pmix_tma = type { ptr, ptr, ptr, ptr, ptr, ptr, ptr, ptr }
%struct.pmix_hash_element_t = type { i32, %union.anon, ptr, ptr }
%union.anon = type { %struct.anon }
%struct.anon = type { ptr, i64 }

@pmix_hash_type_methods_uint64 = internal constant %struct.pmix_hash_type_methods_t { ptr null, ptr @pmix_hash_hash_elt_uint64 }, align 8

; Function Attrs: nounwind uwtable
define i32 @pmix_hash_table_get_value_uint64(ptr noundef %0, i64 noundef %1, ptr noundef %2) #0 {
  %4 = alloca i32, align 4
  %5 = alloca ptr, align 8
  %6 = alloca i64, align 8
  %7 = alloca ptr, align 8
  %8 = alloca i64, align 8
  %9 = alloca i64, align 8
  %10 = alloca ptr, align 8
  %11 = alloca i32, align 4
  store ptr %0, ptr %5, align 8, !tbaa !3
  store i64 %1, ptr %6, align 8, !tbaa !28
  store ptr %2, ptr %7, align 8, !tbaa !42
  call void @llvm.lifetime.start.p0(i64 8, ptr %8) #9
  call void @llvm.lifetime.start.p0(i64 8, ptr %9) #9
  %12 = load ptr, ptr %5, align 8, !tbaa !3
  %13 = getelementptr inbounds nuw %struct.pmix_hash_table_t, ptr %12, i32 0, i32 3
  %14 = load i64, ptr %13, align 8, !tbaa !20
  store i64 %14, ptr %9, align 8, !tbaa !28
  call void @llvm.lifetime.start.p0(i64 8, ptr %10) #9
  %15 = load ptr, ptr %5, align 8, !tbaa !3
  %16 = getelementptr inbounds nuw %struct.pmix_hash_table_t, ptr %15, i32 0, i32 10
  store ptr @pmix_hash_type_methods_uint64, ptr %16, align 8, !tbaa !25
  %17 = load i64, ptr %6, align 8, !tbaa !28
  %18 = load i64, ptr %9, align 8, !tbaa !28
  %19 = urem i64 %17, %18
  store i64 %19, ptr %8, align 8, !tbaa !28
  br label %20

20:                                               ; preds = %50, %3
  %21 = load i64, ptr %8, align 8, !tbaa !28
  %22 = load i64, ptr %9, align 8, !tbaa !28
  %23 = icmp eq i64 %21, %22
  br i1 %23, label %24, label %25

24:                                               ; preds = %20
  store i64 0, ptr %8, align 8, !tbaa !28
  br label %25

25:                                               ; preds = %24, %20
  %26 = load ptr, ptr %5, align 8, !tbaa !3
  %27 = getelementptr inbounds nuw %struct.pmix_hash_table_t, ptr %26, i32 0, i32 2
  %28 = load ptr, ptr %27, align 8, !tbaa !8
  %29 = load i64, ptr %8, align 8, !tbaa !28
  %30 = getelementptr inbounds nuw %struct.pmix_hash_element_t, ptr %28, i64 %29
  store ptr %30, ptr %10, align 8, !tbaa !34
  %31 = load ptr, ptr %10, align 8, !tbaa !34
  %32 = getelementptr inbounds nuw %struct.pmix_hash_element_t, ptr %31, i32 0, i32 0
  %33 = load i32, ptr %32, align 8, !tbaa !35
  %34 = icmp ne i32 %33, 0
  br i1 %34, label %36, label %35

35:                                               ; preds = %25
  store i32 -46, ptr %4, align 4
  store i32 1, ptr %11, align 4
  br label %53

36:                                               ; preds = %25
  %37 = load ptr, ptr %10, align 8, !tbaa !34
  %38 = getelementptr inbounds nuw %struct.pmix_hash_element_t, ptr %37, i32 0, i32 1
  %39 = load i64, ptr %38, align 8, !tbaa !43
  %40 = load i64, ptr %6, align 8, !tbaa !28
  %41 = icmp eq i64 %39, %40
  br i1 %41, label %42, label %47

42:                                               ; preds = %36
  %43 = load ptr, ptr %10, align 8, !tbaa !34
  %44 = getelementptr inbounds nuw %struct.pmix_hash_element_t, ptr %43, i32 0, i32 3
  %45 = load ptr, ptr %44, align 8, !tbaa !39
  %46 = load ptr, ptr %7, align 8, !tbaa !42
  store ptr %45, ptr %46, align 8, !tbaa !42
  store i32 0, ptr %4, align 4
  store i32 1, ptr %11, align 4
  br label %53

47:                                               ; preds = %36
  br label %48

48:                                               ; preds = %47
  br label %49

49:                                               ; preds = %48
  br label %50

50:                                               ; preds = %49
  %51 = load i64, ptr %8, align 8, !tbaa !28
  %52 = add i64 %51, 1
  store i64 %52, ptr %8, align 8, !tbaa !28
  br label %20

53:                                               ; preds = %42, %35
  call void @llvm.lifetime.end.p0(i64 8, ptr %10) #9
  call void @llvm.lifetime.end.p0(i64 8, ptr %9) #9
  call void @llvm.lifetime.end.p0(i64 8, ptr %8) #9
  %54 = load i32, ptr %4, align 4
  ret i32 %54
}