; Function Attrs: nofree norecurse nosync nounwind memory(read, argmem: readwrite, inaccessiblemem: none) uwtable
define range(i32 -46, 1) i32 @pmix_hash_table_get_value_uint64(ptr noundef captures(none) initializes((176, 184)) %0, i64 noundef %1, ptr noundef writeonly captures(none) %2) local_unnamed_addr #2 {
  %4 = getelementptr inbounds nuw i8, ptr %0, i64 136
  %5 = load i64, ptr %4, align 8, !tbaa !11
  %6 = getelementptr inbounds nuw i8, ptr %0, i64 176
  store ptr @pmix_hash_type_methods_uint64, ptr %6, align 8, !tbaa !21
  %7 = urem i64 %1, %5
  %8 = getelementptr inbounds nuw i8, ptr %0, i64 128
  %9 = load ptr, ptr %8, align 8, !tbaa !17
  %10 = getelementptr inbounds nuw %struct.pmix_hash_element_t, ptr %9, i64 %7
  %11 = load i32, ptr %10, align 8, !tbaa !18
  %.not16 = icmp eq i32 %11, 0
  br i1 %.not16, label %.loopexit, label %.lr.ph

12:                                               ; preds = %.lr.ph
  %13 = add i64 %spec.store.select17, 1
  %14 = icmp eq i64 %13, %5
  %spec.store.select = select i1 %14, i64 0, i64 %13
  %15 = getelementptr inbounds nuw %struct.pmix_hash_element_t, ptr %9, i64 %spec.store.select
  %16 = load i32, ptr %15, align 8, !tbaa !18
  %.not = icmp eq i32 %16, 0
  br i1 %.not, label %.loopexit, label %.lr.ph

.lr.ph:                                           ; preds = %3, %12
  %17 = phi ptr [ %15, %12 ], [ %10, %3 ]
  %spec.store.select17 = phi i64 [ %spec.store.select, %12 ], [ %7, %3 ]
  %18 = getelementptr inbounds nuw i8, ptr %17, i64 8
  %19 = load i64, ptr %18, align 8, !tbaa !36
  %20 = icmp eq i64 %19, %1
  br i1 %20, label %21, label %12

21:                                               ; preds = %.lr.ph
  %22 = getelementptr inbounds nuw i8, ptr %17, i64 32
  %23 = load ptr, ptr %22, align 8, !tbaa !24
  store ptr %23, ptr %2, align 8, !tbaa !37
  br label %.loopexit

.loopexit:                                        ; preds = %12, %3, %21
  %.0 = phi i32 [ 0, %21 ], [ -46, %3 ], [ -46, %12 ]
  ret i32 %.0
}